; Function Attrs: mustprogress uwtable
define internal void @"_ZNSt3__110__function6__funcIZN3tev10HelpWindowC1EPN7nanogui6WidgetEbNS_8functionIFvvEEEE3$_4NS_9allocatorISA_EEFviEEclEOi"(ptr nocapture noundef nonnull readonly align 8 dereferenceable(16) %0, ptr nocapture noundef nonnull readonly align 4 dereferenceable(4) %1) unnamed_addr #3 align 2 {
  %3 = getelementptr inbounds i8, ptr %0, i64 8
  %.val = load ptr, ptr %3, align 8
  %.val2 = load i32, ptr %1, align 4
  %4 = tail call noundef i32 @_ZNK7nanogui13TabWidgetBase9tab_indexEi(ptr noundef nonnull align 16 dereferenceable(448) %.val, i32 noundef %.val2)
  %5 = getelementptr inbounds i8, ptr %.val, i64 236
  store i32 %4, ptr %5, align 4
  %6 = load ptr, ptr %.val, align 16
  %7 = getelementptr inbounds i8, ptr %6, i64 128
  %8 = load ptr, ptr %7, align 8
  tail call void %8(ptr noundef nonnull align 16 dereferenceable(448) %.val)
  ret void
}